target datalayout = "e-m:e-p270:32:32-p271:32:32-p272:64:64-i64:64-i128:128-f80:128-n8:16:32:64-S128"
target triple = "x86_64-pc-linux-gnu"

%struct.lua_State = type { i8, i8, i8, i8, i8, i8, i8, ptr, ptr, ptr, ptr, ptr, ptr, ptr, ptr, i32, i32, i16, i16, i32, ptr, ptr, ptr, ptr, ptr }
%struct.lua_TValue = type { %union.Value, [1 x i32], i32 }
%union.Value = type { ptr }
%struct.LuaTable = type { i8, i8, i8, i8, i8, i8, i8, i8, i32, %union.anon.2, ptr, ptr, ptr, ptr }
%union.anon.2 = type { i32 }

; Function Attrs: mustprogress uwtable
define internal noundef i32 @_ZL5tsortP9lua_State(ptr noundef %0) #0 {
  %2 = alloca ptr, align 8
  %3 = alloca ptr, align 8
  %4 = alloca i32, align 4
  %5 = alloca ptr, align 8
  store ptr %0, ptr %2, align 8, !tbaa !4
  %6 = load ptr, ptr %2, align 8, !tbaa !4
  call void @_Z14luaL_checktypeP9lua_Stateii(ptr noundef %6, i32 noundef 1, i32 noundef 6)
  call void @llvm.lifetime.start.p0(i64 8, ptr %3) #7
  %7 = load ptr, ptr %2, align 8, !tbaa !4
  %8 = getelementptr inbounds nuw %struct.lua_State, ptr %7, i32 0, i32 8
  %9 = load ptr, ptr %8, align 8, !tbaa !9
  %10 = getelementptr inbounds nuw %struct.lua_TValue, ptr %9, i32 0, i32 0
  %11 = load ptr, ptr %10, align 8, !tbaa !21
  store ptr %11, ptr %3, align 8, !tbaa !22
  call void @llvm.lifetime.start.p0(i64 4, ptr %4) #7
  %12 = load ptr, ptr %3, align 8, !tbaa !22
  %13 = call noundef i32 @_Z9luaH_getnP8LuaTable(ptr noundef %12)
  store i32 %13, ptr %4, align 4, !tbaa !23
  %14 = load ptr, ptr %3, align 8, !tbaa !22
  %15 = getelementptr inbounds nuw %struct.LuaTable, ptr %14, i32 0, i32 4
  %16 = load i8, ptr %15, align 4, !tbaa !53
  %17 = icmp ne i8 %16, 0
  br i1 %17, label %18, label %20

18:                                               ; preds = %1
  %19 = load ptr, ptr %2, align 8, !tbaa !4
  call void @_Z18luaG_readonlyerrorP9lua_State(ptr noundef %19) #8
  unreachable

20:                                               ; preds = %1
  call void @llvm.lifetime.start.p0(i64 8, ptr %5) #7
  store ptr @_Z13luaV_lessthanP9lua_StatePK10lua_TValueS3_, ptr %5, align 8, !tbaa !54
  %21 = load ptr, ptr %2, align 8, !tbaa !4
  %22 = call noundef i32 @_Z8lua_typeP9lua_Statei(ptr noundef %21, i32 noundef 2)
  %23 = icmp sle i32 %22, 0
  br i1 %23, label %26, label %24

24:                                               ; preds = %20
  %25 = load ptr, ptr %2, align 8, !tbaa !4
  call void @_Z14luaL_checktypeP9lua_Stateii(ptr noundef %25, i32 noundef 2, i32 noundef 7)
  store ptr @_ZL9sort_funcP9lua_StatePK10lua_TValueS3_, ptr %5, align 8, !tbaa !54
  br label %26

26:                                               ; preds = %24, %20
  %27 = load ptr, ptr %2, align 8, !tbaa !4
  call void @_Z10lua_settopP9lua_Statei(ptr noundef %27, i32 noundef 2)
  %28 = load i32, ptr %4, align 4, !tbaa !23
  %29 = icmp sgt i32 %28, 0
  br i1 %29, label %30, label %37

30:                                               ; preds = %26
  %31 = load ptr, ptr %2, align 8, !tbaa !4
  %32 = load ptr, ptr %3, align 8, !tbaa !22
  %33 = load i32, ptr %4, align 4, !tbaa !23
  %34 = sub nsw i32 %33, 1
  %35 = load i32, ptr %4, align 4, !tbaa !23
  %36 = load ptr, ptr %5, align 8, !tbaa !54
  call void @_ZL8sort_recP9lua_StateP8LuaTableiiiPFiS0_PK10lua_TValueS5_E(ptr noundef %31, ptr noundef %32, i32 noundef 0, i32 noundef %34, i32 noundef %35, ptr noundef %36)
  br label %37

37:                                               ; preds = %30, %26
  call void @llvm.lifetime.end.p0(i64 8, ptr %5) #7
  call void @llvm.lifetime.end.p0(i64 4, ptr %4) #7
  call void @llvm.lifetime.end.p0(i64 8, ptr %3) #7
  ret i32 0
}