; Function Attrs: mustprogress uwtable
define internal noundef i32 @_ZL5tsortP9lua_State(ptr noundef %0) #0 {
  tail call void @_Z14luaL_checktypeP9lua_Stateii(ptr noundef %0, i32 noundef 1, i32 noundef 6)
  %2 = getelementptr inbounds nuw i8, ptr %0, i64 16
  %3 = load ptr, ptr %2, align 8, !tbaa !4
  %4 = load ptr, ptr %3, align 8, !tbaa !19
  %5 = tail call noundef i32 @_Z9luaH_getnP8LuaTable(ptr noundef %4)
  %6 = getelementptr inbounds nuw i8, ptr %4, i64 4
  %7 = load i8, ptr %6, align 4, !tbaa !44
  %.not = icmp eq i8 %7, 0
  br i1 %.not, label %9, label %8

8:                                                ; preds = %1
  tail call void @_Z18luaG_readonlyerrorP9lua_State(ptr noundef nonnull %0) #6
  unreachable

9:                                                ; preds = %1
  %10 = tail call noundef i32 @_Z8lua_typeP9lua_Statei(ptr noundef nonnull %0, i32 noundef 2)
  %11 = icmp slt i32 %10, 1
  br i1 %11, label %13, label %12

12:                                               ; preds = %9
  tail call void @_Z14luaL_checktypeP9lua_Stateii(ptr noundef nonnull %0, i32 noundef 2, i32 noundef 7)
  br label %13

13:                                               ; preds = %12, %9
  %.0 = phi ptr [ @_Z13luaV_lessthanP9lua_StatePK10lua_TValueS3_, %9 ], [ @_ZL9sort_funcP9lua_StatePK10lua_TValueS3_, %12 ]
  tail call void @_Z10lua_settopP9lua_Statei(ptr noundef nonnull %0, i32 noundef 2)
  %14 = icmp sgt i32 %5, 0
  br i1 %14, label %15, label %17

15:                                               ; preds = %13
  %16 = add nsw i32 %5, -1
  tail call fastcc void @_ZL8sort_recP9lua_StateP8LuaTableiiiPFiS0_PK10lua_TValueS5_E(ptr noundef nonnull %0, ptr noundef nonnull %4, i32 noundef 0, i32 noundef %16, i32 noundef %5, ptr noundef nonnull %.0)
  br label %17

17:                                               ; preds = %15, %13
  ret i32 0
}